target datalayout = "e-m:e-p270:32:32-p271:32:32-p272:64:64-i64:64-i128:128-f80:128-n8:16:32:64-S128"
target triple = "x86_64-pc-linux-gnu"

%struct.ssl_st = type { i32, ptr, ptr, ptr, %struct.CRYPTO_REF_COUNT, ptr, %struct.crypto_ex_data_st }
%struct.CRYPTO_REF_COUNT = type { i32 }
%struct.crypto_ex_data_st = type { ptr, ptr }
%struct.ssl_connection_st = type { %struct.ssl_st, ptr, i32, ptr, ptr, ptr, i32, ptr, i32, i32, i32, i32, %struct.OSSL_TIME, %struct.OSSL_TIME, %struct.ossl_statem_st, i32, ptr, ptr, i64, i64, i64, %struct.ossl_quic_tls_callbacks_st, ptr, ptr, %struct.anon, ptr, ptr, ptr, i32, ptr, %struct.ssl_dane_st, ptr, ptr, ptr, ptr, i32, [64 x i8], [64 x i8], [64 x i8], [64 x i8], [64 x i8], [64 x i8], [64 x i8], [64 x i8], [64 x i8], [64 x i8], [64 x i8], [64 x i8], ptr, [64 x i8], i64, i32, i64, [32 x i8], ptr, ptr, ptr, i64, ptr, [32 x i8], i64, i32, ptr, ptr, i32, i32, ptr, ptr, ptr, ptr, ptr, i64, ptr, ptr, i64, i32, i32, i32, i64, i32, i32, i64, i64, i64, %struct.anon.1, ptr, i32, ptr, ptr, ptr, i32, ptr, ptr, ptr, i32, i32, i32, i32, ptr, i64, i32, ptr, %struct.srp_ctx_st, ptr, %struct.record_layer_st, ptr, ptr, ptr, ptr, i64, i32, i32, i32, i64, i64, i64, ptr, ptr, ptr, ptr, ptr, i64, ptr, i64, ptr, i64 }
%struct.OSSL_TIME = type { i64 }
%struct.ossl_statem_st = type { i32, i32, i32, i32, i32, i32, i32, i32, i32, i32, i32, i32, i32, ptr, ptr, ptr, i8 }
%struct.ossl_quic_tls_callbacks_st = type { ptr, ptr, ptr, ptr, ptr, ptr }
%struct.anon = type { i64, [32 x i8], [32 x i8], ptr, ptr, i32, i32, i32, i32, [2 x i8], i32, i32, i32, i32, %struct.anon.0, [64 x i8], i64, [64 x i8], i64, i32, i32, ptr, i64, ptr, i64, i32, i8, i8, i16, ptr, i16 }
%struct.anon.0 = type { [128 x i8], i64, [128 x i8], i64, i64, i32, ptr, ptr, [4 x ptr], [4 x i16], i64, i32, ptr, i64, ptr, i64, ptr, ptr, ptr, i32, i64, ptr, i32, ptr, i64, ptr, i64, ptr, i64, ptr, ptr, ptr, ptr, i64, i64, ptr, ptr, i32, i32, i32, i32 }
%struct.ssl_dane_st = type { ptr, ptr, ptr, ptr, ptr, i32, i32, i32, i64 }
%struct.anon.1 = type { [29 x i8], ptr, ptr, ptr, i32, ptr, i16, i32, %struct.anon.2, i32, i32, i64, ptr, i64, ptr, i64, ptr, i64, ptr, i64, ptr, i64, ptr, ptr, ptr, ptr, ptr, ptr, ptr, i64, ptr, i64, i32, i32, i32, i32, ptr, i64, i32, i8, i32, [4 x i32], i32, i8, i8, i8, i8 }
%struct.anon.2 = type { ptr, ptr, ptr, i64 }
%struct.srp_ctx_st = type { ptr, ptr, ptr, ptr, ptr, ptr, ptr, ptr, ptr, ptr, ptr, ptr, ptr, ptr, i32, i64 }
%struct.record_layer_st = type { ptr, ptr, ptr, ptr, ptr, ptr, ptr, ptr, i64, i32, i64, [4 x i8], i64, i64, i8, ptr, i32, ptr, ptr, ptr, i64, i64, i64, i64, [32 x %struct.tls_record_st] }
%struct.tls_record_st = type { ptr, i32, i8, ptr, ptr, i64, i64, i16, [8 x i8] }
%struct.ssl_method_st = type { i32, i32, i64, ptr, ptr, ptr, ptr, ptr, ptr, ptr, ptr, ptr, ptr, ptr, ptr, ptr, ptr, ptr, ptr, ptr, ptr, ptr, ptr, ptr, ptr, ptr, ptr, ptr, ptr, ptr, ptr, ptr }
%struct.ssl3_enc_method = type { ptr, ptr, ptr, ptr, ptr, i64, ptr, i64, ptr, ptr, i32, ptr, ptr, ptr }

@.str = private unnamed_addr constant [35 x i8] c"../openssl/ssl/statem/statem_lib.c\00", align 1
@get_cert_verify_tbs_data.servercontext = internal constant [34 x i8] c"TLS 1.3, server CertificateVerify\00", align 16
@get_cert_verify_tbs_data.clientcontext = internal constant [34 x i8] c"TLS 1.3, client CertificateVerify\00", align 16
@__func__.get_cert_verify_tbs_data = private unnamed_addr constant [25 x i8] c"get_cert_verify_tbs_data\00", align 1

; Function Attrs: nounwind uwtable
define internal i32 @get_cert_verify_tbs_data(ptr noundef %0, ptr noundef %1, ptr noundef %2, ptr noundef %3) #0 {
  %5 = alloca i32, align 4
  %6 = alloca ptr, align 8
  %7 = alloca ptr, align 8
  %8 = alloca ptr, align 8
  %9 = alloca ptr, align 8
  %10 = alloca i64, align 8
  %11 = alloca i32, align 4
  %12 = alloca i64, align 8
  %13 = alloca i64, align 8
  store ptr %0, ptr %6, align 8, !tbaa !18
  store ptr %1, ptr %7, align 8, !tbaa !82
  store ptr %2, ptr %8, align 8, !tbaa !8
  store ptr %3, ptr %9, align 8, !tbaa !158
  %14 = load ptr, ptr %6, align 8, !tbaa !18
  %15 = getelementptr inbounds nuw %struct.ssl_connection_st, ptr %14, i32 0, i32 0
  %16 = getelementptr inbounds nuw %struct.ssl_st, ptr %15, i32 0, i32 3
  %17 = load ptr, ptr %16, align 8, !tbaa !86
  %18 = getelementptr inbounds nuw %struct.ssl_method_st, ptr %17, i32 0, i32 28
  %19 = load ptr, ptr %18, align 8, !tbaa !87
  %20 = getelementptr inbounds nuw %struct.ssl3_enc_method, ptr %19, i32 0, i32 10
  %21 = load i32, ptr %20, align 8, !tbaa !90
  %22 = and i32 %21, 8
  %23 = icmp ne i32 %22, 0
  br i1 %23, label %102, label %24

24:                                               ; preds = %4
  %25 = load ptr, ptr %6, align 8, !tbaa !18
  %26 = getelementptr inbounds nuw %struct.ssl_connection_st, ptr %25, i32 0, i32 0
  %27 = getelementptr inbounds nuw %struct.ssl_st, ptr %26, i32 0, i32 3
  %28 = load ptr, ptr %27, align 8, !tbaa !86
  %29 = getelementptr inbounds nuw %struct.ssl_method_st, ptr %28, i32 0, i32 0
  %30 = load i32, ptr %29, align 8, !tbaa !92
  %31 = icmp sge i32 %30, 772
  br i1 %31, label %32, label %102

32:                                               ; preds = %24
  %33 = load ptr, ptr %6, align 8, !tbaa !18
  %34 = getelementptr inbounds nuw %struct.ssl_connection_st, ptr %33, i32 0, i32 0
  %35 = getelementptr inbounds nuw %struct.ssl_st, ptr %34, i32 0, i32 3
  %36 = load ptr, ptr %35, align 8, !tbaa !86
  %37 = getelementptr inbounds nuw %struct.ssl_method_st, ptr %36, i32 0, i32 0
  %38 = load i32, ptr %37, align 8, !tbaa !92
  %39 = icmp ne i32 %38, 65536
  br i1 %39, label %40, label %102

40:                                               ; preds = %32
  call void @llvm.lifetime.start.p0(i64 8, ptr %10) #9
  %41 = load ptr, ptr %7, align 8, !tbaa !82
  call void @llvm.memset.p0.i64(ptr align 1 %41, i8 32, i64 64, i1 false)
  %42 = load ptr, ptr %6, align 8, !tbaa !18
  %43 = getelementptr inbounds nuw %struct.ssl_connection_st, ptr %42, i32 0, i32 14
  %44 = getelementptr inbounds nuw %struct.ossl_statem_st, ptr %43, i32 0, i32 5
  %45 = load i32, ptr %44, align 4, !tbaa !93
  %46 = icmp eq i32 %45, 43
  br i1 %46, label %53, label %47

47:                                               ; preds = %40
  %48 = load ptr, ptr %6, align 8, !tbaa !18
  %49 = getelementptr inbounds nuw %struct.ssl_connection_st, ptr %48, i32 0, i32 14
  %50 = getelementptr inbounds nuw %struct.ossl_statem_st, ptr %49, i32 0, i32 5
  %51 = load i32, ptr %50, align 4, !tbaa !93
  %52 = icmp eq i32 %51, 44
  br i1 %52, label %53, label %57

53:                                               ; preds = %47, %40
  %54 = load ptr, ptr %7, align 8, !tbaa !82
  %55 = getelementptr inbounds i8, ptr %54, i64 64
  %56 = call ptr @strcpy(ptr noundef %55, ptr noundef @get_cert_verify_tbs_data.servercontext) #9
  br label %61

57:                                               ; preds = %47
  %58 = load ptr, ptr %7, align 8, !tbaa !82
  %59 = getelementptr inbounds i8, ptr %58, i64 64
  %60 = call ptr @strcpy(ptr noundef %59, ptr noundef @get_cert_verify_tbs_data.clientcontext) #9
  br label %61

61:                                               ; preds = %57, %53
  %62 = load ptr, ptr %6, align 8, !tbaa !18
  %63 = getelementptr inbounds nuw %struct.ssl_connection_st, ptr %62, i32 0, i32 14
  %64 = getelementptr inbounds nuw %struct.ossl_statem_st, ptr %63, i32 0, i32 5
  %65 = load i32, ptr %64, align 4, !tbaa !93
  %66 = icmp eq i32 %65, 43
  br i1 %66, label %73, label %67

67:                                               ; preds = %61
  %68 = load ptr, ptr %6, align 8, !tbaa !18
  %69 = getelementptr inbounds nuw %struct.ssl_connection_st, ptr %68, i32 0, i32 14
  %70 = getelementptr inbounds nuw %struct.ossl_statem_st, ptr %69, i32 0, i32 5
  %71 = load i32, ptr %70, align 4, !tbaa !93
  %72 = icmp eq i32 %71, 33
  br i1 %72, label %73, label %85

73:                                               ; preds = %67, %61
  %74 = load ptr, ptr %7, align 8, !tbaa !82
  %75 = getelementptr inbounds i8, ptr %74, i64 98
  %76 = load ptr, ptr %6, align 8, !tbaa !18
  %77 = getelementptr inbounds nuw %struct.ssl_connection_st, ptr %76, i32 0, i32 49
  %78 = getelementptr inbounds [64 x i8], ptr %77, i64 0, i64 0
  %79 = load ptr, ptr %6, align 8, !tbaa !18
  %80 = getelementptr inbounds nuw %struct.ssl_connection_st, ptr %79, i32 0, i32 50
  %81 = load i64, ptr %80, align 8, !tbaa !159
  call void @llvm.memcpy.p0.p0.i64(ptr align 1 %75, ptr align 8 %78, i64 %81, i1 false)
  %82 = load ptr, ptr %6, align 8, !tbaa !18
  %83 = getelementptr inbounds nuw %struct.ssl_connection_st, ptr %82, i32 0, i32 50
  %84 = load i64, ptr %83, align 8, !tbaa !159
  store i64 %84, ptr %10, align 8, !tbaa !76
  br label %93

85:                                               ; preds = %67
  %86 = load ptr, ptr %6, align 8, !tbaa !18
  %87 = load ptr, ptr %7, align 8, !tbaa !82
  %88 = getelementptr inbounds i8, ptr %87, i64 98
  %89 = call i32 @ssl_handshake_hash(ptr noundef %86, ptr noundef %88, i64 noundef 64, ptr noundef %10)
  %90 = icmp ne i32 %89, 0
  br i1 %90, label %92, label %91

91:                                               ; preds = %85
  store i32 0, ptr %5, align 4
  store i32 1, ptr %11, align 4
  br label %99

92:                                               ; preds = %85
  br label %93

93:                                               ; preds = %92, %73
  %94 = load ptr, ptr %7, align 8, !tbaa !82
  %95 = load ptr, ptr %8, align 8, !tbaa !8
  store ptr %94, ptr %95, align 8, !tbaa !8
  %96 = load i64, ptr %10, align 8, !tbaa !76
  %97 = add i64 98, %96
  %98 = load ptr, ptr %9, align 8, !tbaa !158
  store i64 %97, ptr %98, align 8, !tbaa !76
  store i32 0, ptr %11, align 4
  br label %99

99:                                               ; preds = %93, %91
  call void @llvm.lifetime.end.p0(i64 8, ptr %10) #9
  %100 = load i32, ptr %11, align 4
  switch i32 %100, label %122 [
    i32 0, label %101
    i32 1, label %120
  ]

101:                                              ; preds = %99
  br label %119

102:                                              ; preds = %32, %24, %4
  call void @llvm.lifetime.start.p0(i64 8, ptr %12) #9
  call void @llvm.lifetime.start.p0(i64 8, ptr %13) #9
  %103 = load ptr, ptr %6, align 8, !tbaa !18
  %104 = getelementptr inbounds nuw %struct.ssl_connection_st, ptr %103, i32 0, i32 24
  %105 = getelementptr inbounds nuw %struct.anon, ptr %104, i32 0, i32 3
  %106 = load ptr, ptr %105, align 8, !tbaa !160
  %107 = load ptr, ptr %8, align 8, !tbaa !8
  %108 = call i64 @BIO_ctrl(ptr noundef %106, i32 noundef 3, i64 noundef 0, ptr noundef %107)
  store i64 %108, ptr %13, align 8, !tbaa !76
  store i64 %108, ptr %12, align 8, !tbaa !76
  %109 = load i64, ptr %13, align 8, !tbaa !76
  %110 = icmp sle i64 %109, 0
  br i1 %110, label %111, label %113

111:                                              ; preds = %102
  call void @ERR_new()
  call void @ERR_set_debug(ptr noundef @.str, i32 noundef 302, ptr noundef @__func__.get_cert_verify_tbs_data)
  %112 = load ptr, ptr %6, align 8, !tbaa !18
  call void (ptr, i32, i32, ptr, ...) @ossl_statem_fatal(ptr noundef %112, i32 noundef 80, i32 noundef 786691, ptr noundef null)
  store i32 0, ptr %5, align 4
  store i32 1, ptr %11, align 4
  br label %116

113:                                              ; preds = %102
  %114 = load i64, ptr %12, align 8, !tbaa !76
  %115 = load ptr, ptr %9, align 8, !tbaa !158
  store i64 %114, ptr %115, align 8, !tbaa !76
  store i32 0, ptr %11, align 4
  br label %116

116:                                              ; preds = %113, %111
  call void @llvm.lifetime.end.p0(i64 8, ptr %13) #9
  call void @llvm.lifetime.end.p0(i64 8, ptr %12) #9
  %117 = load i32, ptr %11, align 4
  switch i32 %117, label %122 [
    i32 0, label %118
    i32 1, label %120
  ]

118:                                              ; preds = %116
  br label %119

119:                                              ; preds = %118, %101
  store i32 1, ptr %5, align 4
  br label %120

120:                                              ; preds = %119, %116, %99
  %121 = load i32, ptr %5, align 4
  ret i32 %121

122:                                              ; preds = %116, %99
  unreachable
}