; Function Attrs: nounwind uwtable
define internal fastcc range(i32 0, 2) i32 @get_cert_verify_tbs_data(ptr noundef %0, ptr noundef nonnull %1, ptr noundef nonnull %2, ptr noundef nonnull writeonly captures(none) %3) unnamed_addr #0 {
  %5 = alloca i64, align 8
  %6 = getelementptr inbounds nuw i8, ptr %0, i64 24
  %7 = load ptr, ptr %6, align 8, !tbaa !81
  %8 = getelementptr inbounds nuw i8, ptr %7, i64 216
  %9 = load ptr, ptr %8, align 8, !tbaa !82
  %10 = getelementptr inbounds nuw i8, ptr %9, i64 80
  %11 = load i32, ptr %10, align 8, !tbaa !85
  %12 = and i32 %11, 8
  %.not = icmp eq i32 %12, 0
  br i1 %.not, label %13, label %35

13:                                               ; preds = %4
  %14 = load i32, ptr %7, align 8, !tbaa !87
  %15 = icmp slt i32 %14, 772
  %.not32 = icmp eq i32 %14, 65536
  %or.cond = or i1 %15, %.not32
  br i1 %or.cond, label %35, label %16

16:                                               ; preds = %13
  call void @llvm.lifetime.start.p0(i64 8, ptr nonnull %5) #11
  tail call void @llvm.memset.p0.i64(ptr noundef nonnull align 1 dereferenceable(64) %1, i8 32, i64 64, i1 false)
  %17 = getelementptr inbounds nuw i8, ptr %0, i64 172
  %18 = load i32, ptr %17, align 4, !tbaa !88
  %.off = add i32 %18, -43
  %switch36 = icmp ult i32 %.off, 2
  %19 = getelementptr inbounds nuw i8, ptr %1, i64 64
  br i1 %switch36, label %20, label %21

20:                                               ; preds = %16
  tail call void @llvm.memcpy.p0.p0.i64(ptr noundef nonnull align 1 dereferenceable(34) %19, ptr noundef nonnull align 16 dereferenceable(34) @get_cert_verify_tbs_data.servercontext, i64 34, i1 false) #11
  br label %22

21:                                               ; preds = %16
  tail call void @llvm.memcpy.p0.p0.i64(ptr noundef nonnull align 1 dereferenceable(34) %19, ptr noundef nonnull align 16 dereferenceable(34) @get_cert_verify_tbs_data.clientcontext, i64 34, i1 false) #11
  br label %22

22:                                               ; preds = %21, %20
  %23 = load i32, ptr %17, align 4, !tbaa !88
  switch i32 %23, label %29 [
    i32 43, label %24
    i32 33, label %24
  ]

24:                                               ; preds = %22, %22
  %25 = getelementptr inbounds nuw i8, ptr %1, i64 98
  %26 = getelementptr inbounds nuw i8, ptr %0, i64 2184
  %27 = getelementptr inbounds nuw i8, ptr %0, i64 2248
  %28 = load i64, ptr %27, align 8, !tbaa !141
  tail call void @llvm.memcpy.p0.p0.i64(ptr nonnull align 1 %25, ptr nonnull align 8 %26, i64 %28, i1 false)
  br label %.thread

29:                                               ; preds = %22
  %30 = getelementptr inbounds nuw i8, ptr %1, i64 98
  %31 = call i32 @ssl_handshake_hash(ptr noundef nonnull %0, ptr noundef nonnull %30, i64 noundef 64, ptr noundef nonnull %5) #11
  %.not33 = icmp eq i32 %31, 0
  br i1 %.not33, label %34, label %.thread

.thread:                                          ; preds = %29, %24
  %.in = phi ptr [ %27, %24 ], [ %5, %29 ]
  %32 = load i64, ptr %.in, align 8, !tbaa !72
  store ptr %1, ptr %2, align 8, !tbaa !136
  %33 = add i64 %32, 98
  store i64 %33, ptr %3, align 8, !tbaa !72
  call void @llvm.lifetime.end.p0(i64 8, ptr nonnull %5) #11
  br label %41

34:                                               ; preds = %29
  call void @llvm.lifetime.end.p0(i64 8, ptr nonnull %5) #11
  br label %41

35:                                               ; preds = %13, %4
  %36 = getelementptr inbounds nuw i8, ptr %0, i64 424
  %37 = load ptr, ptr %36, align 8, !tbaa !142
  %38 = tail call i64 @BIO_ctrl(ptr noundef %37, i32 noundef 3, i64 noundef 0, ptr noundef nonnull %2) #11
  %39 = icmp slt i64 %38, 1
  br i1 %39, label %40, label %.thread39

.thread39:                                        ; preds = %35
  store i64 %38, ptr %3, align 8, !tbaa !72
  br label %41

40:                                               ; preds = %35
  tail call void @ERR_new() #11
  tail call void @ERR_set_debug(ptr noundef nonnull @.str, i32 noundef 302, ptr noundef nonnull @__func__.get_cert_verify_tbs_data) #11
  tail call void (ptr, i32, i32, ptr, ...) @ossl_statem_fatal(ptr noundef nonnull %0, i32 noundef 80, i32 noundef 786691, ptr noundef null) #11
  br label %41

41:                                               ; preds = %.thread, %.thread39, %40, %34
  %.1 = phi i32 [ 0, %40 ], [ 0, %34 ], [ 1, %.thread39 ], [ 1, %.thread ]
  ret i32 %.1
}